target datalayout = "e-m:e-p270:32:32-p271:32:32-p272:64:64-i64:64-i128:128-f80:128-n8:16:32:64-S128"
target triple = "x86_64-pc-linux-gnu"

%"class.std::__cxx11::basic_string" = type { %"struct.std::__cxx11::basic_string<char>::_Alloc_hider", i64, %union.anon }
%"struct.std::__cxx11::basic_string<char>::_Alloc_hider" = type { ptr }
%union.anon = type { i64, [8 x i8] }
%"class.testing::internal::TestFactoryBase" = type { ptr }
%"class.std::tuple" = type { %"struct.std::_Tuple_impl" }
%"struct.std::_Tuple_impl" = type { %"struct.std::_Tuple_impl.83", %"struct.std::_Head_base.84" }
%"struct.std::_Tuple_impl.83" = type { %"struct.std::_Head_base" }
%"struct.std::_Head_base" = type { %"class.std::__cxx11::basic_string" }
%"struct.std::_Head_base.84" = type { %"class.std::__cxx11::basic_string" }
%"class.testing::(anonymous namespace)::ParameterizedTestFactory.85" = type { %"class.testing::internal::TestFactoryBase", %"class.std::tuple" }

; Function Attrs: mustprogress nounwind uwtable
define linkonce_odr hidden void @_ZN7testing8internal15TestFactoryBaseD2Ev(ptr noundef nonnull align 8 dereferenceable(8) %0) unnamed_addr #7 comdat align 2 {
  %2 = alloca ptr, align 8
  store ptr %0, ptr %2, align 8, !tbaa !150
  ret void
}

; Function Attrs: mustprogress nounwind uwtable
define linkonce_odr hidden void @_ZN7testing8internal15TestFactoryBaseC2Ev(ptr noundef nonnull align 8 dereferenceable(8) %0) unnamed_addr #7 comdat align 2 {
  %2 = alloca ptr, align 8
  store ptr %0, ptr %2, align 8, !tbaa !150
  %3 = load ptr, ptr %2, align 8
  store ptr getelementptr inbounds inrange(-16, 24) ({ [5 x ptr] }, ptr @_ZTVN7testing8internal15TestFactoryBaseE, i32 0, i32 0, i32 2), ptr %3, align 8, !tbaa !38
  ret void
}

; Function Attrs: mustprogress uwtable
define internal void @_ZN7testing12_GLOBAL__N_124ParameterizedTestFactoryIN11opencv_test12_GLOBAL__N_144Perf_Objdetect_QRCode_Multi_detectMulti_TestEEC2ESt5tupleIJNSt7__cxx1112basic_stringIcSt11char_traitsIcESaIcEEESC_EE(ptr noundef nonnull align 8 dereferenceable(72) %0, ptr noundef %1) unnamed_addr #6 align 2 personality ptr @__gxx_personality_v0 {
  %3 = alloca ptr, align 8
  %4 = alloca ptr, align 8
  %5 = alloca ptr, align 8
  %6 = alloca i32, align 4
  store ptr %0, ptr %3, align 8, !tbaa !421
  store ptr %1, ptr %4, align 8, !tbaa !419
  %7 = load ptr, ptr %3, align 8
  call void @_ZN7testing8internal15TestFactoryBaseC2Ev(ptr noundef nonnull align 8 dereferenceable(8) %7)
  store ptr getelementptr inbounds inrange(-16, 24) ({ [5 x ptr] }, ptr @_ZTVN7testing12_GLOBAL__N_124ParameterizedTestFactoryIN11opencv_test12_GLOBAL__N_144Perf_Objdetect_QRCode_Multi_detectMulti_TestEEE, i32 0, i32 0, i32 2), ptr %7, align 8, !tbaa !38
  %8 = getelementptr inbounds nuw %"class.testing::(anonymous namespace)::ParameterizedTestFactory.85", ptr %7, i32 0, i32 1
  invoke void @_ZNSt5tupleIJNSt7__cxx1112basic_stringIcSt11char_traitsIcESaIcEEES5_EEC2ERKS6_(ptr noundef nonnull align 8 dereferenceable(64) %8, ptr noundef nonnull align 8 dereferenceable(64) %1)
          to label %9 unwind label %10

9:                                                ; preds = %2
  ret void

10:                                               ; preds = %2
  %11 = landingpad { ptr, i32 }
          cleanup
  %12 = extractvalue { ptr, i32 } %11, 0
  store ptr %12, ptr %5, align 8
  %13 = extractvalue { ptr, i32 } %11, 1
  store i32 %13, ptr %6, align 4
  call void @_ZN7testing8internal15TestFactoryBaseD2Ev(ptr noundef nonnull align 8 dereferenceable(8) %7) #3
  br label %14

14:                                               ; preds = %10
  %15 = load ptr, ptr %5, align 8
  %16 = load i32, ptr %6, align 4
  %17 = insertvalue { ptr, i32 } poison, ptr %15, 0
  %18 = insertvalue { ptr, i32 } %17, i32 %16, 1
  resume { ptr, i32 } %18
}

; Function Attrs: mustprogress uwtable
define linkonce_odr hidden void @_ZNSt5tupleIJNSt7__cxx1112basic_stringIcSt11char_traitsIcESaIcEEES5_EEC2ERKS6_(ptr noundef nonnull align 8 dereferenceable(64) %0, ptr noundef nonnull align 8 dereferenceable(64) %1) unnamed_addr #6 comdat align 2 {
  %3 = alloca ptr, align 8
  %4 = alloca ptr, align 8
  store ptr %0, ptr %3, align 8, !tbaa !419
  store ptr %1, ptr %4, align 8, !tbaa !419
  %5 = load ptr, ptr %3, align 8
  %6 = load ptr, ptr %4, align 8, !tbaa !419
  call void @_ZNSt11_Tuple_implILm0EJNSt7__cxx1112basic_stringIcSt11char_traitsIcESaIcEEES5_EEC2ERKS6_(ptr noundef nonnull align 8 dereferenceable(64) %5, ptr noundef nonnull align 8 dereferenceable(64) %6)
  ret void
}

; Function Attrs: mustprogress uwtable
define internal noundef ptr @_ZN7testing8internal15TestMetaFactoryIN11opencv_test12_GLOBAL__N_144Perf_Objdetect_QRCode_Multi_detectMulti_TestEE17CreateTestFactoryESt5tupleIJNSt7__cxx1112basic_stringIcSt11char_traitsIcESaIcEEESC_EE(ptr noundef nonnull align 8 dereferenceable(8) %0, ptr noundef %1) unnamed_addr #6 align 2 personality ptr @__gxx_personality_v0 {
  %3 = alloca ptr, align 8
  %4 = alloca ptr, align 8
  %5 = alloca %"class.std::tuple", align 8
  %6 = alloca ptr, align 8
  %7 = alloca i32, align 4
  %8 = alloca i1, align 1
  store ptr %0, ptr %3, align 8, !tbaa !387
  store ptr %1, ptr %4, align 8, !tbaa !419
  %9 = call noalias noundef nonnull ptr @_Znwm(i64 noundef 72) #29
  store i1 true, ptr %8, align 1
  invoke void @_ZNSt5tupleIJNSt7__cxx1112basic_stringIcSt11char_traitsIcESaIcEEES5_EEC2ERKS6_(ptr noundef nonnull align 8 dereferenceable(64) %5, ptr noundef nonnull align 8 dereferenceable(64) %1)
          to label %10 unwind label %12

10:                                               ; preds = %2
  invoke void @_ZN7testing12_GLOBAL__N_124ParameterizedTestFactoryIN11opencv_test12_GLOBAL__N_144Perf_Objdetect_QRCode_Multi_detectMulti_TestEEC2ESt5tupleIJNSt7__cxx1112basic_stringIcSt11char_traitsIcESaIcEEESC_EE(ptr noundef nonnull align 8 dereferenceable(72) %9, ptr noundef %5)
          to label %11 unwind label %16

11:                                               ; preds = %10
  store i1 false, ptr %8, align 1
  call void @_ZNSt11_Tuple_implILm0EJNSt7__cxx1112basic_stringIcSt11char_traitsIcESaIcEEES5_EED2Ev(ptr noundef nonnull align 8 dereferenceable(64) %5) #3
  ret ptr %9

12:                                               ; preds = %2
  %13 = landingpad { ptr, i32 }
          cleanup
  %14 = extractvalue { ptr, i32 } %13, 0
  store ptr %14, ptr %6, align 8
  %15 = extractvalue { ptr, i32 } %13, 1
  store i32 %15, ptr %7, align 4
  br label %20

16:                                               ; preds = %10
  %17 = landingpad { ptr, i32 }
          cleanup
  %18 = extractvalue { ptr, i32 } %17, 0
  store ptr %18, ptr %6, align 8
  %19 = extractvalue { ptr, i32 } %17, 1
  store i32 %19, ptr %7, align 4
  call void @_ZNSt11_Tuple_implILm0EJNSt7__cxx1112basic_stringIcSt11char_traitsIcESaIcEEES5_EED2Ev(ptr noundef nonnull align 8 dereferenceable(64) %5) #3
  br label %20

20:                                               ; preds = %16, %12
  %21 = load i1, ptr %8, align 1
  br i1 %21, label %22, label %23

22:                                               ; preds = %20
  call void @_ZdlPv(ptr noundef %9) #30
  br label %23

23:                                               ; preds = %22, %20
  br label %24

24:                                               ; preds = %23
  %25 = load ptr, ptr %6, align 8
  %26 = load i32, ptr %7, align 4
  %27 = insertvalue { ptr, i32 } poison, ptr %25, 0
  %28 = insertvalue { ptr, i32 } %27, i32 %26, 1
  resume { ptr, i32 } %28
}